	.text
	.intel_syntax noprefix
	.file	"1uz1ikebt61t892p"
	.section	.text._ZN3std10sys_common9backtrace28__rust_begin_short_backtrace17h21cd12b191d0a157E,"ax",@progbits
	.p2align	4, 0x90
	.type	_ZN3std10sys_common9backtrace28__rust_begin_short_backtrace17h21cd12b191d0a157E,@function
_ZN3std10sys_common9backtrace28__rust_begin_short_backtrace17h21cd12b191d0a157E:
.Lfunc_begin0:
	.file	1 "/rustc/a55dd71d5fb0ec5a6a3a9e8c27b2127ba491ce52/library/std/src/sys_common/backtrace.rs"
	.loc	1 118 0
	.cfi_startproc
	.cfi_personality 155, DW.ref.rust_eh_personality
	.cfi_lsda 27, .Lexception0
	sub	rsp, 40
	.cfi_def_cfa_offset 48
	mov	qword ptr [rsp + 16], rdi
.Ltmp3:
	.loc	1 122 18 prologue_end
	call	_ZN4core3ops8function6FnOnce9call_once17ha702c57997bd9c3aE
.Ltmp0:
.Ltmp4:
	.loc	1 125 5
	call	_ZN4core4hint9black_box17hd0ce3897ae8acd72E
.Ltmp1:
	jmp	.LBB0_4
.Ltmp5:
.LBB0_2:
	.loc	1 128 1
	jmp	.LBB0_5
.LBB0_3:
.Ltmp2:
	.loc	1 0 1 is_stmt 0
	mov	rcx, rax
	mov	eax, edx
	mov	qword ptr [rsp + 24], rcx
	mov	dword ptr [rsp + 32], eax
	jmp	.LBB0_2
.LBB0_4:
	.loc	1 128 2
	add	rsp, 40
	.cfi_def_cfa_offset 8
	ret
.LBB0_5:
	.cfi_def_cfa_offset 48
	.loc	1 118 1 is_stmt 1
	mov	rdi, qword ptr [rsp + 24]
	call	_Unwind_Resume@PLT
	ud2
.Ltmp6:
.Lfunc_end0:
	.size	_ZN3std10sys_common9backtrace28__rust_begin_short_backtrace17h21cd12b191d0a157E, .Lfunc_end0-_ZN3std10sys_common9backtrace28__rust_begin_short_backtrace17h21cd12b191d0a157E
	.cfi_endproc
	.section	.gcc_except_table._ZN3std10sys_common9backtrace28__rust_begin_short_backtrace17h21cd12b191d0a157E,"a",@progbits
	.p2align	2
GCC_except_table0:
.Lexception0:
	.byte	255
	.byte	255
	.byte	1
	.uleb128 .Lcst_end0-.Lcst_begin0
.Lcst_begin0:
	.uleb128 .Lfunc_begin0-.Lfunc_begin0
	.uleb128 .Ltmp0-.Lfunc_begin0
	.byte	0
	.byte	0
	.uleb128 .Ltmp0-.Lfunc_begin0
	.uleb128 .Ltmp1-.Ltmp0
	.uleb128 .Ltmp2-.Lfunc_begin0
	.byte	0
	.uleb128 .Ltmp1-.Lfunc_begin0
	.uleb128 .Lfunc_end0-.Ltmp1
	.byte	0
	.byte	0
.Lcst_end0:
	.p2align	2

	.section	.text._ZN3std2rt10lang_start17h16dda6c03d96ba31E,"ax",@progbits
	.hidden	_ZN3std2rt10lang_start17h16dda6c03d96ba31E
	.globl	_ZN3std2rt10lang_start17h16dda6c03d96ba31E
	.p2align	4, 0x90
	.type	_ZN3std2rt10lang_start17h16dda6c03d96ba31E,@function
_ZN3std2rt10lang_start17h16dda6c03d96ba31E:
.Lfunc_begin1:
	.file	2 "/rustc/a55dd71d5fb0ec5a6a3a9e8c27b2127ba491ce52/library/std/src/rt.rs"
	.loc	2 139 0
	.cfi_startproc
	sub	rsp, 56
	.cfi_def_cfa_offset 64
	mov	rcx, rdx
	mov	rdx, rsi
	mov	qword ptr [rsp + 24], rdi
	mov	qword ptr [rsp + 32], rdx
	mov	qword ptr [rsp + 40], rcx
.Ltmp7:
	.loc	2 145 10 prologue_end
	mov	qword ptr [rsp + 16], rdi
	.loc	2 145 9 is_stmt 0
	lea	rdi, [rsp + 16]
	.loc	2 144 17 is_stmt 1
	lea	rsi, [rip + .L__unnamed_1]
	call	qword ptr [rip + _ZN3std2rt19lang_start_internal17h6612c8a7a6861b8bE@GOTPCREL]
	mov	qword ptr [rsp + 8], rax
	.loc	2 144 12 is_stmt 0
	mov	rax, qword ptr [rsp + 8]
	mov	qword ptr [rsp + 48], rax
	.loc	2 150 2 is_stmt 1
	add	rsp, 56
	.cfi_def_cfa_offset 8
	ret
.Ltmp8:
.Lfunc_end1:
	.size	_ZN3std2rt10lang_start17h16dda6c03d96ba31E, .Lfunc_end1-_ZN3std2rt10lang_start17h16dda6c03d96ba31E
	.cfi_endproc

	.section	".text._ZN3std2rt10lang_start28_$u7b$$u7b$closure$u7d$$u7d$17hfd0dd53f45f98292E","ax",@progbits
	.p2align	4, 0x90
	.type	_ZN3std2rt10lang_start28_$u7b$$u7b$closure$u7d$$u7d$17hfd0dd53f45f98292E,@function
_ZN3std2rt10lang_start28_$u7b$$u7b$closure$u7d$$u7d$17hfd0dd53f45f98292E:
.Lfunc_begin2:
	.loc	2 145 0
	.cfi_startproc
	sub	rsp, 24
	.cfi_def_cfa_offset 32
	mov	qword ptr [rsp + 16], rdi
.Ltmp9:
	.loc	2 145 77 prologue_end
	mov	rdi, qword ptr [rdi]
	.loc	2 145 18 is_stmt 0
	call	_ZN3std10sys_common9backtrace28__rust_begin_short_backtrace17h21cd12b191d0a157E
	call	_ZN54_$LT$$LP$$RP$$u20$as$u20$std..process..Termination$GT$6report17hc11cd9907e1d2c8fE
	mov	byte ptr [rsp + 15], al
	.loc	2 0 18
	mov	al, byte ptr [rsp + 15]
	.loc	2 145 18
	movzx	edi, al
	call	_ZN3std7process8ExitCode6to_i3217h343dc0c34b0689ffE
	mov	dword ptr [rsp + 8], eax
	.loc	2 0 18
	mov	eax, dword ptr [rsp + 8]
	.loc	2 145 17
	add	rsp, 24
	.cfi_def_cfa_offset 8
	ret
.Ltmp10:
.Lfunc_end2:
	.size	_ZN3std2rt10lang_start28_$u7b$$u7b$closure$u7d$$u7d$17hfd0dd53f45f98292E, .Lfunc_end2-_ZN3std2rt10lang_start28_$u7b$$u7b$closure$u7d$$u7d$17hfd0dd53f45f98292E
	.cfi_endproc

	.section	.text._ZN3std3sys4unix7process14process_common8ExitCode6as_i3217hd0cdc3eda132b10dE,"ax",@progbits
	.p2align	4, 0x90
	.type	_ZN3std3sys4unix7process14process_common8ExitCode6as_i3217hd0cdc3eda132b10dE,@function
_ZN3std3sys4unix7process14process_common8ExitCode6as_i3217hd0cdc3eda132b10dE:
.Lfunc_begin3:
	.file	3 "/rustc/a55dd71d5fb0ec5a6a3a9e8c27b2127ba491ce52/library/std/src/sys/unix/process/process_common.rs"
	.loc	3 485 0 is_stmt 1
	.cfi_startproc
	push	rax
	.cfi_def_cfa_offset 16
	mov	qword ptr [rsp], rdi
.Ltmp11:
	.loc	3 486 9 prologue_end
	movzx	eax, byte ptr [rdi]
	.loc	3 487 6
	pop	rcx
	.cfi_def_cfa_offset 8
	ret
.Ltmp12:
.Lfunc_end3:
	.size	_ZN3std3sys4unix7process14process_common8ExitCode6as_i3217hd0cdc3eda132b10dE, .Lfunc_end3-_ZN3std3sys4unix7process14process_common8ExitCode6as_i3217hd0cdc3eda132b10dE
	.cfi_endproc

	.section	.text._ZN3std7process8ExitCode6to_i3217h343dc0c34b0689ffE,"ax",@progbits
	.p2align	4, 0x90
	.type	_ZN3std7process8ExitCode6to_i3217h343dc0c34b0689ffE,@function
_ZN3std7process8ExitCode6to_i3217h343dc0c34b0689ffE:
.Lfunc_begin4:
	.file	4 "/rustc/a55dd71d5fb0ec5a6a3a9e8c27b2127ba491ce52/library/std/src/process.rs"
	.loc	4 1808 0
	.cfi_startproc
	push	rax
	.cfi_def_cfa_offset 16
	mov	al, dil
	mov	byte ptr [rsp + 7], al
.Ltmp13:
	.loc	4 1809 9 prologue_end
	lea	rdi, [rsp + 7]
	call	_ZN3std3sys4unix7process14process_common8ExitCode6as_i3217hd0cdc3eda132b10dE
	mov	dword ptr [rsp], eax
	.loc	4 0 9 is_stmt 0
	mov	eax, dword ptr [rsp]
	.loc	4 1810 6 is_stmt 1
	pop	rcx
	.cfi_def_cfa_offset 8
	ret
.Ltmp14:
.Lfunc_end4:
	.size	_ZN3std7process8ExitCode6to_i3217h343dc0c34b0689ffE, .Lfunc_end4-_ZN3std7process8ExitCode6to_i3217h343dc0c34b0689ffE
	.cfi_endproc

	.section	.text._ZN4core3fmt9Arguments6new_v117h6248e64a2e955bf9E,"ax",@progbits
	.p2align	4, 0x90
	.type	_ZN4core3fmt9Arguments6new_v117h6248e64a2e955bf9E,@function
_ZN4core3fmt9Arguments6new_v117h6248e64a2e955bf9E:
.Lfunc_begin5:
	.file	5 "/rustc/a55dd71d5fb0ec5a6a3a9e8c27b2127ba491ce52/library/core/src/fmt/mod.rs"
	.loc	5 390 0
	.cfi_startproc
	sub	rsp, 152
	.cfi_def_cfa_offset 160
	mov	qword ptr [rsp], r8
	mov	qword ptr [rsp + 8], rcx
	mov	qword ptr [rsp + 16], rdx
	mov	qword ptr [rsp + 24], rsi
	mov	qword ptr [rsp + 32], rdi
	mov	qword ptr [rsp + 40], rdi
	mov	qword ptr [rsp + 120], rsi
	mov	qword ptr [rsp + 128], rdx
	mov	qword ptr [rsp + 136], rcx
	mov	qword ptr [rsp + 144], r8
.Ltmp15:
	.loc	5 391 12 prologue_end
	cmp	rdx, r8
	jb	.LBB5_2
	.loc	5 0 12 is_stmt 0
	mov	rax, qword ptr [rsp + 16]
	mov	rcx, qword ptr [rsp]
	.loc	5 391 56
	add	rcx, 1
	.loc	5 391 41
	cmp	rax, rcx
	seta	al
	.loc	5 391 12
	and	al, 1
	mov	byte ptr [rsp + 55], al
	jmp	.LBB5_3
.LBB5_2:
	mov	byte ptr [rsp + 55], 1
.LBB5_3:
	test	byte ptr [rsp + 55], 1
	jne	.LBB5_5
	.loc	5 0 12
	mov	rax, qword ptr [rsp + 40]
	mov	rcx, qword ptr [rsp + 32]
	mov	rdx, qword ptr [rsp]
	mov	rsi, qword ptr [rsp + 8]
	mov	rdi, qword ptr [rsp + 16]
	mov	r8, qword ptr [rsp + 24]
	.loc	5 394 34 is_stmt 1
	mov	qword ptr [rsp + 104], 0
	.loc	5 394 9 is_stmt 0
	mov	qword ptr [rcx], r8
	mov	qword ptr [rcx + 8], rdi
	mov	r8, qword ptr [rsp + 104]
	mov	rdi, qword ptr [rsp + 112]
	mov	qword ptr [rcx + 16], r8
	mov	qword ptr [rcx + 24], rdi
	mov	qword ptr [rcx + 32], rsi
	mov	qword ptr [rcx + 40], rdx
	.loc	5 395 6 is_stmt 1
	add	rsp, 152
	.cfi_def_cfa_offset 8
	ret
.LBB5_5:
	.cfi_def_cfa_offset 160
	.loc	5 392 13
	lea	rdi, [rsp + 56]
	lea	rsi, [rip + .L__unnamed_2]
	mov	edx, 1
	lea	rcx, [rip + .L__unnamed_3]
	xor	eax, eax
	mov	r8d, eax
	call	_ZN4core3fmt9Arguments6new_v117h6248e64a2e955bf9E
	lea	rsi, [rip + .L__unnamed_4]
	mov	rax, qword ptr [rip + _ZN4core9panicking9panic_fmt17ha6dc7f2ab2479463E@GOTPCREL]
	lea	rdi, [rsp + 56]
	call	rax
	ud2
.Ltmp16:
.Lfunc_end5:
	.size	_ZN4core3fmt9Arguments6new_v117h6248e64a2e955bf9E, .Lfunc_end5-_ZN4core3fmt9Arguments6new_v117h6248e64a2e955bf9E
	.cfi_endproc

	.section	".text._ZN4core3ops8function6FnOnce40call_once$u7b$$u7b$vtable.shim$u7d$$u7d$17hee8b22dba9309de2E","ax",@progbits
	.p2align	4, 0x90
	.type	_ZN4core3ops8function6FnOnce40call_once$u7b$$u7b$vtable.shim$u7d$$u7d$17hee8b22dba9309de2E,@function
_ZN4core3ops8function6FnOnce40call_once$u7b$$u7b$vtable.shim$u7d$$u7d$17hee8b22dba9309de2E:
.Lfunc_begin6:
	.file	6 "/rustc/a55dd71d5fb0ec5a6a3a9e8c27b2127ba491ce52/library/core/src/ops/function.rs"
	.loc	6 248 0
	.cfi_startproc
	sub	rsp, 24
	.cfi_def_cfa_offset 32
	mov	qword ptr [rsp + 16], rdi
.Ltmp17:
	.loc	6 248 5 prologue_end
	mov	rdi, qword ptr [rdi]
	call	_ZN4core3ops8function6FnOnce9call_once17hea288e2f4d8e2905E
	mov	dword ptr [rsp + 4], eax
	.loc	6 0 5 is_stmt 0
	mov	eax, dword ptr [rsp + 4]
	.loc	6 248 5
	add	rsp, 24
	.cfi_def_cfa_offset 8
	ret
.Ltmp18:
.Lfunc_end6:
	.size	_ZN4core3ops8function6FnOnce40call_once$u7b$$u7b$vtable.shim$u7d$$u7d$17hee8b22dba9309de2E, .Lfunc_end6-_ZN4core3ops8function6FnOnce40call_once$u7b$$u7b$vtable.shim$u7d$$u7d$17hee8b22dba9309de2E
	.cfi_endproc

	.section	.text._ZN4core3ops8function6FnOnce9call_once17ha702c57997bd9c3aE,"ax",@progbits
	.p2align	4, 0x90
	.type	_ZN4core3ops8function6FnOnce9call_once17ha702c57997bd9c3aE,@function
_ZN4core3ops8function6FnOnce9call_once17ha702c57997bd9c3aE:
.Lfunc_begin7:
	.loc	6 248 0 is_stmt 1
	.cfi_startproc
	sub	rsp, 24
	.cfi_def_cfa_offset 32
	mov	qword ptr [rsp + 16], rdi
.Ltmp19:
	.loc	6 248 5 prologue_end
	call	rdi
	add	rsp, 24
	.cfi_def_cfa_offset 8
	ret
.Ltmp20:
.Lfunc_end7:
	.size	_ZN4core3ops8function6FnOnce9call_once17ha702c57997bd9c3aE, .Lfunc_end7-_ZN4core3ops8function6FnOnce9call_once17ha702c57997bd9c3aE
	.cfi_endproc

	.section	.text._ZN4core3ops8function6FnOnce9call_once17hea288e2f4d8e2905E,"ax",@progbits
	.p2align	4, 0x90
	.type	_ZN4core3ops8function6FnOnce9call_once17hea288e2f4d8e2905E,@function
_ZN4core3ops8function6FnOnce9call_once17hea288e2f4d8e2905E:
.Lfunc_begin8:
	.loc	6 248 0
	.cfi_startproc
	.cfi_personality 155, DW.ref.rust_eh_personality
	.cfi_lsda 27, .Lexception1
	sub	rsp, 40
	.cfi_def_cfa_offset 48
	mov	qword ptr [rsp + 8], rdi
.Ltmp21:
	lea	rdi, [rsp + 8]
.Ltmp24:
	.loc	6 248 5 prologue_end
	call	_ZN3std2rt10lang_start28_$u7b$$u7b$closure$u7d$$u7d$17hfd0dd53f45f98292E
.Ltmp22:
	mov	dword ptr [rsp + 4], eax
	jmp	.LBB8_3
.LBB8_1:
	jmp	.LBB8_4
.LBB8_2:
.Ltmp23:
	.loc	6 0 5 is_stmt 0
	mov	rcx, rax
	mov	eax, edx
	mov	qword ptr [rsp + 24], rcx
	mov	dword ptr [rsp + 32], eax
	jmp	.LBB8_1
.LBB8_3:
	.loc	6 248 5
	jmp	.LBB8_5
.LBB8_4:
	mov	rdi, qword ptr [rsp + 24]
	call	_Unwind_Resume@PLT
	ud2
.LBB8_5:
	.loc	6 0 5
	mov	eax, dword ptr [rsp + 4]
	.loc	6 248 5
	add	rsp, 40
	.cfi_def_cfa_offset 8
	ret
.Ltmp25:
.Lfunc_end8:
	.size	_ZN4core3ops8function6FnOnce9call_once17hea288e2f4d8e2905E, .Lfunc_end8-_ZN4core3ops8function6FnOnce9call_once17hea288e2f4d8e2905E
	.cfi_endproc
	.section	.gcc_except_table._ZN4core3ops8function6FnOnce9call_once17hea288e2f4d8e2905E,"a",@progbits
	.p2align	2
GCC_except_table8:
.Lexception1:
	.byte	255
	.byte	255
	.byte	1
	.uleb128 .Lcst_end1-.Lcst_begin1
.Lcst_begin1:
	.uleb128 .Ltmp21-.Lfunc_begin8
	.uleb128 .Ltmp22-.Ltmp21
	.uleb128 .Ltmp23-.Lfunc_begin8
	.byte	0
	.uleb128 .Ltmp22-.Lfunc_begin8
	.uleb128 .Lfunc_end8-.Ltmp22
	.byte	0
	.byte	0
.Lcst_end1:
	.p2align	2

	.section	".text._ZN4core3ptr85drop_in_place$LT$std..rt..lang_start$LT$$LP$$RP$$GT$..$u7b$$u7b$closure$u7d$$u7d$$GT$17hf33aef9b690e8bd9E","ax",@progbits
	.p2align	4, 0x90
	.type	_ZN4core3ptr85drop_in_place$LT$std..rt..lang_start$LT$$LP$$RP$$GT$..$u7b$$u7b$closure$u7d$$u7d$$GT$17hf33aef9b690e8bd9E,@function
_ZN4core3ptr85drop_in_place$LT$std..rt..lang_start$LT$$LP$$RP$$GT$..$u7b$$u7b$closure$u7d$$u7d$$GT$17hf33aef9b690e8bd9E:
.Lfunc_begin9:
	.file	7 "/rustc/a55dd71d5fb0ec5a6a3a9e8c27b2127ba491ce52/library/core/src/ptr/mod.rs"
	.loc	7 487 0 is_stmt 1
	.cfi_startproc
	push	rax
	.cfi_def_cfa_offset 16
	mov	qword ptr [rsp], rdi
.Ltmp26:
	.loc	7 487 1 prologue_end
	pop	rax
	.cfi_def_cfa_offset 8
	ret
.Ltmp27:
.Lfunc_end9:
	.size	_ZN4core3ptr85drop_in_place$LT$std..rt..lang_start$LT$$LP$$RP$$GT$..$u7b$$u7b$closure$u7d$$u7d$$GT$17hf33aef9b690e8bd9E, .Lfunc_end9-_ZN4core3ptr85drop_in_place$LT$std..rt..lang_start$LT$$LP$$RP$$GT$..$u7b$$u7b$closure$u7d$$u7d$$GT$17hf33aef9b690e8bd9E
	.cfi_endproc

	.section	.text._ZN4core4hint9black_box17hd0ce3897ae8acd72E,"ax",@progbits
	.p2align	4, 0x90
	.type	_ZN4core4hint9black_box17hd0ce3897ae8acd72E,@function
_ZN4core4hint9black_box17hd0ce3897ae8acd72E:
.Lfunc_begin10:
	.file	8 "/rustc/a55dd71d5fb0ec5a6a3a9e8c27b2127ba491ce52/library/core/src/hint.rs"
	.loc	8 225 0
	.cfi_startproc
	push	rax
	.cfi_def_cfa_offset 16
.Ltmp28:
	.loc	8 226 5 prologue_end
	#APP
	#NO_APP
	.loc	8 227 2
	pop	rax
	.cfi_def_cfa_offset 8
	ret
.Ltmp29:
.Lfunc_end10:
	.size	_ZN4core4hint9black_box17hd0ce3897ae8acd72E, .Lfunc_end10-_ZN4core4hint9black_box17hd0ce3897ae8acd72E
	.cfi_endproc

	.section	".text._ZN54_$LT$$LP$$RP$$u20$as$u20$std..process..Termination$GT$6report17hc11cd9907e1d2c8fE","ax",@progbits
	.p2align	4, 0x90
	.type	_ZN54_$LT$$LP$$RP$$u20$as$u20$std..process..Termination$GT$6report17hc11cd9907e1d2c8fE,@function
_ZN54_$LT$$LP$$RP$$u20$as$u20$std..process..Termination$GT$6report17hc11cd9907e1d2c8fE:
.Lfunc_begin11:
	.loc	4 2170 0
	.cfi_startproc
	push	rax
	.cfi_def_cfa_offset 16
.Ltmp30:
	.loc	4 2172 6 prologue_end
	xor	eax, eax
	pop	rcx
	.cfi_def_cfa_offset 8
	ret
.Ltmp31:
.Lfunc_end11:
	.size	_ZN54_$LT$$LP$$RP$$u20$as$u20$std..process..Termination$GT$6report17hc11cd9907e1d2c8fE, .Lfunc_end11-_ZN54_$LT$$LP$$RP$$u20$as$u20$std..process..Termination$GT$6report17hc11cd9907e1d2c8fE
	.cfi_endproc

	.section	.text._ZN10chapter_034main17h610227ee7b19794fE,"ax",@progbits
	.p2align	4, 0x90
	.type	_ZN10chapter_034main17h610227ee7b19794fE,@function
_ZN10chapter_034main17h610227ee7b19794fE:
.Lfunc_begin12:
	.file	9 "/home/nilueps/Sync/cs-app/chapter_03/src/main.rs"
	.loc	9 1 0
	.cfi_startproc
	sub	rsp, 56
	.cfi_def_cfa_offset 64
.Ltmp32:
	.loc	9 2 5 prologue_end
	lea	rdi, [rsp + 8]
	lea	rsi, [rip + .L__unnamed_5]
	mov	edx, 1
	lea	rcx, [rip + .L__unnamed_3]
	xor	eax, eax
	mov	r8d, eax
	call	_ZN4core3fmt9Arguments6new_v117h6248e64a2e955bf9E
	lea	rdi, [rsp + 8]
	call	qword ptr [rip + _ZN3std2io5stdio6_print17h235f89a7e7e6b2bbE@GOTPCREL]
	.loc	9 3 2
	add	rsp, 56
	.cfi_def_cfa_offset 8
	ret
.Ltmp33:
.Lfunc_end12:
	.size	_ZN10chapter_034main17h610227ee7b19794fE, .Lfunc_end12-_ZN10chapter_034main17h610227ee7b19794fE
	.cfi_endproc

	.section	.text.main,"ax",@progbits
	.globl	main
	.p2align	4, 0x90
	.type	main,@function
main:
.Lfunc_begin13:
	.cfi_startproc
	push	rax
	.cfi_def_cfa_offset 16
	mov	rdx, rsi
	mov	rax, qword ptr [rip + __rustc_debug_gdb_scripts_section__@GOTPCREL]
	mov	al, byte ptr [rax]
	movsxd	rsi, edi
	lea	rdi, [rip + _ZN10chapter_034main17h610227ee7b19794fE]
	call	_ZN3std2rt10lang_start17h16dda6c03d96ba31E
	pop	rcx
	.cfi_def_cfa_offset 8
	ret
.Lfunc_end13:
	.size	main, .Lfunc_end13-main
	.cfi_endproc

	.type	.L__unnamed_1,@object
	.section	.data.rel.ro..L__unnamed_1,"aw",@progbits
	.p2align	3
.L__unnamed_1:
	.quad	_ZN4core3ptr85drop_in_place$LT$std..rt..lang_start$LT$$LP$$RP$$GT$..$u7b$$u7b$closure$u7d$$u7d$$GT$17hf33aef9b690e8bd9E
	.asciz	"\b\000\000\000\000\000\000\000\b\000\000\000\000\000\000"
	.quad	_ZN4core3ops8function6FnOnce40call_once$u7b$$u7b$vtable.shim$u7d$$u7d$17hee8b22dba9309de2E
	.quad	_ZN3std2rt10lang_start28_$u7b$$u7b$closure$u7d$$u7d$17hfd0dd53f45f98292E
	.quad	_ZN3std2rt10lang_start28_$u7b$$u7b$closure$u7d$$u7d$17hfd0dd53f45f98292E
	.size	.L__unnamed_1, 48

	.type	.L__unnamed_6,@object
	.section	.rodata..L__unnamed_6,"a",@progbits
.L__unnamed_6:
	.ascii	"invalid args"
	.size	.L__unnamed_6, 12

	.type	.L__unnamed_2,@object
	.section	.data.rel.ro..L__unnamed_2,"aw",@progbits
	.p2align	3
.L__unnamed_2:
	.quad	.L__unnamed_6
	.asciz	"\f\000\000\000\000\000\000"
	.size	.L__unnamed_2, 16

	.type	.L__unnamed_3,@object
	.section	.rodata..L__unnamed_3,"a",@progbits
	.p2align	3
.L__unnamed_3:
	.size	.L__unnamed_3, 0

	.type	.L__unnamed_7,@object
	.section	.rodata..L__unnamed_7,"a",@progbits
.L__unnamed_7:
	.ascii	"/rustc/a55dd71d5fb0ec5a6a3a9e8c27b2127ba491ce52/library/core/src/fmt/mod.rs"
	.size	.L__unnamed_7, 75

	.type	.L__unnamed_4,@object
	.section	.data.rel.ro..L__unnamed_4,"aw",@progbits
	.p2align	3
.L__unnamed_4:
	.quad	.L__unnamed_7
	.asciz	"K\000\000\000\000\000\000\000\210\001\000\000\r\000\000"
	.size	.L__unnamed_4, 24

	.type	.L__unnamed_8,@object
	.section	.rodata..L__unnamed_8,"a",@progbits
.L__unnamed_8:
	.ascii	"Hello, world!\n"
	.size	.L__unnamed_8, 14

	.type	.L__unnamed_5,@object
	.section	.data.rel.ro..L__unnamed_5,"aw",@progbits
	.p2align	3
.L__unnamed_5:
	.quad	.L__unnamed_8
	.asciz	"\016\000\000\000\000\000\000"
	.size	.L__unnamed_5, 16

	.type	__rustc_debug_gdb_scripts_section__,@object
	.section	.debug_gdb_scripts,"aMS",@progbits,1,unique,1
	.weak	__rustc_debug_gdb_scripts_section__
__rustc_debug_gdb_scripts_section__:
	.asciz	"\001gdb_load_rust_pretty_printers.py"
	.size	__rustc_debug_gdb_scripts_section__, 34

	.section	.data.rel.ro..L__unnamed_1,"aw",@progbits
.Lsec_end0:
	.section	.text._ZN3std10sys_common9backtrace28__rust_begin_short_backtrace17h21cd12b191d0a157E,"ax",@progbits
.Lsec_end1:
	.section	.text._ZN3std2rt10lang_start17h16dda6c03d96ba31E,"ax",@progbits
.Lsec_end2:
	.section	".text._ZN3std2rt10lang_start28_$u7b$$u7b$closure$u7d$$u7d$17hfd0dd53f45f98292E","ax",@progbits
.Lsec_end3:
	.section	.text._ZN3std3sys4unix7process14process_common8ExitCode6as_i3217hd0cdc3eda132b10dE,"ax",@progbits
.Lsec_end4:
	.section	.text._ZN3std7process8ExitCode6to_i3217h343dc0c34b0689ffE,"ax",@progbits
.Lsec_end5:
	.section	.text._ZN4core3fmt9Arguments6new_v117h6248e64a2e955bf9E,"ax",@progbits
.Lsec_end6:
	.section	".text._ZN4core3ops8function6FnOnce40call_once$u7b$$u7b$vtable.shim$u7d$$u7d$17hee8b22dba9309de2E","ax",@progbits
.Lsec_end7:
	.section	.text._ZN4core3ops8function6FnOnce9call_once17ha702c57997bd9c3aE,"ax",@progbits
.Lsec_end8:
	.section	.text._ZN4core3ops8function6FnOnce9call_once17hea288e2f4d8e2905E,"ax",@progbits
.Lsec_end9:
	.section	".text._ZN4core3ptr85drop_in_place$LT$std..rt..lang_start$LT$$LP$$RP$$GT$..$u7b$$u7b$closure$u7d$$u7d$$GT$17hf33aef9b690e8bd9E","ax",@progbits
.Lsec_end10:
	.section	.text._ZN4core4hint9black_box17hd0ce3897ae8acd72E,"ax",@progbits
.Lsec_end11:
	.section	".text._ZN54_$LT$$LP$$RP$$u20$as$u20$std..process..Termination$GT$6report17hc11cd9907e1d2c8fE","ax",@progbits
.Lsec_end12:
	.section	.text._ZN10chapter_034main17h610227ee7b19794fE,"ax",@progbits
.Lsec_end13:
	.section	.data.DW.ref.rust_eh_personality,"aGw",@progbits,DW.ref.rust_eh_personality,comdat
	.p2align	3
	.type	DW.ref.rust_eh_personality,@object
	.size	DW.ref.rust_eh_personality, 8
DW.ref.rust_eh_personality:
	.quad	rust_eh_personality
	.section	".note.GNU-stack","",@progbits